; Function Attrs: nounwind uwtable
define internal range(i32 0, 2) i32 @dh_to_DH_der_encode(ptr noundef readonly captures(none) %0, ptr noundef %1, ptr noundef %2, ptr noundef readnone captures(address_is_null) %3, i32 noundef %4, ptr readnone captures(none) %5, ptr readnone captures(none) %6) #0 {
  %8 = alloca ptr, align 8
  %.not = icmp eq ptr %3, null
  br i1 %.not, label %10, label %9

9:                                                ; preds = %7
  tail call void @ERR_new() #5
  tail call void @ERR_set_debug(ptr noundef nonnull @.str, i32 noundef 1548, ptr noundef nonnull @__func__.dh_to_DH_der_encode) #5
  tail call void (i32, i32, ptr, ...) @ERR_set_error(i32 noundef 57, i32 noundef 524550, ptr noundef null) #5
  br label %key2any_encode.exit

10:                                               ; preds = %7
  %11 = and i32 %4, 132
  %.not5 = icmp eq i32 %11, 0
  br i1 %.not5, label %37, label %12

12:                                               ; preds = %10
  %13 = icmp eq ptr %2, null
  br i1 %13, label %14, label %15

14:                                               ; preds = %12
  tail call void @ERR_new() #5
  tail call void @ERR_set_debug(ptr noundef nonnull @.str, i32 noundef 1140, ptr noundef nonnull @__func__.key2any_encode) #5
  tail call void (i32, i32, ptr, ...) @ERR_set_error(i32 noundef 57, i32 noundef 786690, ptr noundef null) #5
  br label %key2any_encode.exit

15:                                               ; preds = %12
  %16 = tail call i32 @DH_test_flags(ptr noundef nonnull %2, i32 noundef 4096) #5
  %.not.i.not = icmp eq i32 %16, 0
  br i1 %.not.i.not, label %17, label %36

17:                                               ; preds = %15
  %18 = load ptr, ptr %0, align 8, !tbaa !3
  %19 = tail call ptr @ossl_bio_new_from_core_bio(ptr noundef %18, ptr noundef %1) #5
  %.not28.i = icmp eq ptr %19, null
  br i1 %.not28.i, label %34, label %20

20:                                               ; preds = %17
  call void @llvm.lifetime.start.p0(i64 8, ptr nonnull %8) #5
  store ptr null, ptr %8, align 8, !tbaa !16
  %21 = tail call i32 @DH_test_flags(ptr noundef nonnull %2, i32 noundef 4096) #5
  %.not.i7 = icmp eq i32 %21, 0
  br i1 %.not.i7, label %24, label %22

22:                                               ; preds = %20
  %23 = call i32 @i2d_DHxparams(ptr noundef nonnull %2, ptr noundef nonnull %8) #5
  br label %dh_type_specific_params_to_der.exit

24:                                               ; preds = %20
  %25 = call i32 @i2d_DHparams(ptr noundef nonnull %2, ptr noundef nonnull %8) #5
  br label %dh_type_specific_params_to_der.exit

dh_type_specific_params_to_der.exit:              ; preds = %22, %24
  %.0.i8 = phi i32 [ %23, %22 ], [ %25, %24 ]
  %26 = icmp slt i32 %.0.i8, 1
  br i1 %26, label %27, label %28

27:                                               ; preds = %dh_type_specific_params_to_der.exit
  call void @ERR_new() #5
  call void @ERR_set_debug(ptr noundef nonnull @.str, i32 noundef 391, ptr noundef nonnull @__func__.key_to_type_specific_der_bio) #5
  call void (i32, i32, ptr, ...) @ERR_set_error(i32 noundef 57, i32 noundef 524345, ptr noundef null) #5
  br label %key_to_type_specific_der_bio.exit

28:                                               ; preds = %dh_type_specific_params_to_der.exit
  %29 = load ptr, ptr %8, align 8, !tbaa !16
  %30 = call i32 @BIO_write(ptr noundef nonnull %19, ptr noundef %29, i32 noundef %.0.i8) #5
  %31 = load ptr, ptr %8, align 8, !tbaa !16
  call void @CRYPTO_free(ptr noundef %31, ptr noundef nonnull @.str, i32 noundef 396) #5
  %32 = icmp sgt i32 %30, 0
  %33 = zext i1 %32 to i32
  br label %key_to_type_specific_der_bio.exit

key_to_type_specific_der_bio.exit:                ; preds = %27, %28
  %.0.i6 = phi i32 [ 0, %27 ], [ %33, %28 ]
  call void @llvm.lifetime.end.p0(i64 8, ptr nonnull %8) #5
  br label %34

34:                                               ; preds = %key_to_type_specific_der_bio.exit, %17
  %.1.i = phi i32 [ %.0.i6, %key_to_type_specific_der_bio.exit ], [ 0, %17 ]
  %35 = call i32 @BIO_free(ptr noundef %19) #5
  br label %key2any_encode.exit

36:                                               ; preds = %15
  tail call void @ERR_new() #5
  tail call void @ERR_set_debug(ptr noundef nonnull @.str, i32 noundef 1153, ptr noundef nonnull @__func__.key2any_encode) #5
  tail call void (i32, i32, ptr, ...) @ERR_set_error(i32 noundef 57, i32 noundef 524550, ptr noundef null) #5
  br label %key2any_encode.exit

37:                                               ; preds = %10
  tail call void @ERR_new() #5
  tail call void @ERR_set_debug(ptr noundef nonnull @.str, i32 noundef 1548, ptr noundef nonnull @__func__.dh_to_DH_der_encode) #5
  tail call void (i32, i32, ptr, ...) @ERR_set_error(i32 noundef 57, i32 noundef 524550, ptr noundef null) #5
  br label %key2any_encode.exit

key2any_encode.exit:                              ; preds = %36, %34, %14, %37, %9
  %.0 = phi i32 [ 0, %9 ], [ 0, %37 ], [ 0, %14 ], [ %.1.i, %34 ], [ 0, %36 ]
  ret i32 %.0
}